target datalayout = "e-m:e-p270:32:32-p271:32:32-p272:64:64-i64:64-i128:128-f80:128-n8:16:32:64-S128"
target triple = "x86_64-pc-linux-gnu"

%class.stopwatch = type <{ %"class.std::chrono::time_point", %"class.std::chrono::duration", i8, [7 x i8] }>
%"class.std::chrono::time_point" = type { %"class.std::chrono::duration" }
%"class.std::chrono::duration" = type { i64 }
%class.ref_vector = type { %class.ref_vector_core }
%class.ref_vector_core = type { %class.ref_manager_wrapper, %class.ptr_vector }
%class.ref_manager_wrapper = type { ptr }
%class.ptr_vector = type { %class.vector }
%class.vector = type { ptr }
%class.ref = type { ptr }
%class.obj_ref = type { ptr, ptr }
%class.ref.45 = type { ptr }
%class.obj_ref.51 = type { ptr, ptr }
%class.ref_vector.53 = type { %class.ref_vector_core.54 }
%class.ref_vector_core.54 = type { %class.ref_manager_wrapper.55, %class.ptr_vector.56 }
%class.ref_manager_wrapper.55 = type { ptr }
%class.ptr_vector.56 = type { %class.vector.57 }
%class.vector.57 = type { ptr }
%class.scoped_ptr.114 = type { ptr }
%class.ptr_vector.85 = type { %class.vector.86 }
%class.vector.86 = type { ptr }
%class.obj_ref.96 = type { ptr, ptr }
%"class.spacer::pob" = type { i32, %class.ref.45, ptr, %class.obj_ref.51, %class.ref_vector, %class.obj_ref.51, i64, i32, %class.scoped_ptr.109, %class.ptr_vector.110, %class.ptr_vector.112, i32, %class.obj_ref.51, i32, %class.scoped_ptr.114 }
%class.scoped_ptr.109 = type { ptr }
%class.ptr_vector.110 = type { %class.vector.111 }
%class.vector.111 = type { ptr }
%class.ptr_vector.112 = type { %class.vector.113 }
%class.vector.113 = type { ptr }
%"class.spacer::pred_transformer" = type { ptr, ptr, ptr, %class.obj_ref, %class.ref_vector.115, %class.ptr_vector.118, %"class.spacer::pred_transformer::pt_rules", %class.ptr_vector.130, %class.scoped_ptr.132, %class.ref, %"class.spacer::pred_transformer::pob_manager", %"class.spacer::pred_transformer::frames", %class.ref_vector_core.141, i32, %class.ref_vector.53, %class.obj_ref.51, %class.obj_ref.51, %class.obj_ref.96, %class.obj_ref.96, i8, %class.ptr_vector.85, %"struct.spacer::pred_transformer::stats", %class.stopwatch, %class.stopwatch, %class.stopwatch, %class.stopwatch, i8, [7 x i8], %"class.spacer::pred_transformer::cluster_db" }
%class.ref_vector.115 = type { %class.ref_vector_core.116 }
%class.ref_vector_core.116 = type { %class.ref_manager_wrapper.117, %class.ptr_vector.85 }
%class.ref_manager_wrapper.117 = type { ptr }
%class.ptr_vector.118 = type { %class.vector.119 }
%class.vector.119 = type { ptr }
%"class.spacer::pred_transformer::pt_rules" = type { %class.obj_map.120, %class.obj_map.125 }
%class.obj_map.120 = type { %class.core_hashtable.121 }
%class.core_hashtable.121 = type <{ ptr, i32, i32, i32, [4 x i8] }>
%class.obj_map.125 = type { %class.core_hashtable.126 }
%class.core_hashtable.126 = type <{ ptr, i32, i32, i32, [4 x i8] }>
%class.ptr_vector.130 = type { %class.vector.131 }
%class.vector.131 = type { ptr }
%class.scoped_ptr.132 = type { ptr }
%"class.spacer::pred_transformer::pob_manager" = type { ptr, %class.obj_map.133, %class.ref_vector_core.138 }
%class.obj_map.133 = type { %class.core_hashtable.134 }
%class.core_hashtable.134 = type <{ ptr, i32, i32, i32, [4 x i8] }>
%class.ref_vector_core.138 = type { %class.ptr_vector.110 }
%"class.spacer::pred_transformer::frames" = type <{ ptr, %class.ref_vector_core.139, %class.ref_vector_core.139, %class.ref_vector_core.139, i32, i8, [3 x i8] }>
%class.ref_vector_core.139 = type { %class.ptr_vector.112 }
%class.ref_vector_core.141 = type { %class.ptr_vector.143 }
%class.ptr_vector.143 = type { %class.vector.144 }
%class.vector.144 = type { ptr }
%"struct.spacer::pred_transformer::stats" = type { i32, i32, i32, i32, i32, i32 }
%"class.spacer::pred_transformer::cluster_db" = type <{ %class.ref_vector_core.145, i32, [4 x i8] }>
%class.ref_vector_core.145 = type { %class.ptr_vector.147 }
%class.ptr_vector.147 = type { %class.vector.148 }
%class.vector.148 = type { ptr }

; Function Attrs: mustprogress uwtable
define linkonce_odr hidden void @_Z7deallocIN6spacer3pobEEvPT_(ptr noundef %0) #4 comdat {
  %2 = alloca ptr, align 8
  store ptr %0, ptr %2, align 8, !tbaa !206
  %3 = load ptr, ptr %2, align 8, !tbaa !206
  %4 = icmp eq ptr %3, null
  br i1 %4, label %5, label %6

5:                                                ; preds = %1
  br label %9

6:                                                ; preds = %1
  %7 = load ptr, ptr %2, align 8, !tbaa !206
  call void @_ZN6spacer3pobD2Ev(ptr noundef nonnull align 8 dereferenceable(152) %7) #3
  %8 = load ptr, ptr %2, align 8, !tbaa !206
  call void @_ZN6memory10deallocateEPv(ptr noundef %8)
  br label %9

9:                                                ; preds = %6, %5
  ret void
}

; Function Attrs: mustprogress uwtable
define linkonce_odr hidden noundef nonnull align 8 dereferenceable(8) ptr @_ZN10scoped_ptrIN6spacer3pobEEaSEPS1_(ptr noundef nonnull align 8 dereferenceable(8) %0, ptr noundef %1) #4 comdat align 2 {
  %3 = alloca ptr, align 8
  %4 = alloca ptr, align 8
  store ptr %0, ptr %3, align 8, !tbaa !359
  store ptr %1, ptr %4, align 8, !tbaa !206
  %5 = load ptr, ptr %3, align 8
  %6 = getelementptr inbounds nuw %class.scoped_ptr.114, ptr %5, i32 0, i32 0
  %7 = load ptr, ptr %6, align 8, !tbaa !361
  %8 = load ptr, ptr %4, align 8, !tbaa !206
  %9 = icmp ne ptr %7, %8
  br i1 %9, label %10, label %15

10:                                               ; preds = %2
  %11 = getelementptr inbounds nuw %class.scoped_ptr.114, ptr %5, i32 0, i32 0
  %12 = load ptr, ptr %11, align 8, !tbaa !361
  call void @_Z7deallocIN6spacer3pobEEvPT_(ptr noundef %12)
  %13 = load ptr, ptr %4, align 8, !tbaa !206
  %14 = getelementptr inbounds nuw %class.scoped_ptr.114, ptr %5, i32 0, i32 0
  store ptr %13, ptr %14, align 8, !tbaa !361
  br label %15

15:                                               ; preds = %10, %2
  ret ptr %5
}

; Function Attrs: mustprogress uwtable
define linkonce_odr hidden void @_ZN6spacer3pob8set_dataEPS0_(ptr noundef nonnull align 8 dereferenceable(152) %0, ptr noundef %1) #4 comdat align 2 {
  %3 = alloca ptr, align 8
  %4 = alloca ptr, align 8
  store ptr %0, ptr %3, align 8, !tbaa !206
  store ptr %1, ptr %4, align 8, !tbaa !206
  %5 = load ptr, ptr %3, align 8
  %6 = load ptr, ptr %4, align 8, !tbaa !206
  %7 = getelementptr inbounds nuw %"class.spacer::pob", ptr %5, i32 0, i32 14
  %8 = call noundef nonnull align 8 dereferenceable(8) ptr @_ZN10scoped_ptrIN6spacer3pobEEaSEPS1_(ptr noundef nonnull align 8 dereferenceable(8) %7, ptr noundef %6)
  ret void
}

; Function Attrs: mustprogress nounwind uwtable
define linkonce_odr hidden noundef ptr @_ZNK7obj_refI4expr11ast_managerE3getEv(ptr noundef nonnull align 8 dereferenceable(16) %0) #5 comdat align 2 {
  %2 = alloca ptr, align 8
  store ptr %0, ptr %2, align 8, !tbaa !203
  %3 = load ptr, ptr %2, align 8
  %4 = getelementptr inbounds nuw %class.obj_ref.51, ptr %3, i32 0, i32 0
  %5 = load ptr, ptr %4, align 8, !tbaa !290
  ret ptr %5
}

; Function Attrs: mustprogress nounwind uwtable
define linkonce_odr hidden noundef ptr @_ZNK3refIN6spacer3pobEE3getEv(ptr noundef nonnull align 8 dereferenceable(8) %0) #5 comdat align 2 {
  %2 = alloca ptr, align 8
  store ptr %0, ptr %2, align 8, !tbaa !198
  %3 = load ptr, ptr %2, align 8
  %4 = getelementptr inbounds nuw %class.ref.45, ptr %3, i32 0, i32 0
  %5 = load ptr, ptr %4, align 8, !tbaa !343
  ret ptr %5
}

; Function Attrs: mustprogress nounwind uwtable
define linkonce_odr hidden noundef ptr @_ZNK10scoped_ptrIN6spacer3pobEE3getEv(ptr noundef nonnull align 8 dereferenceable(8) %0) #5 comdat align 2 {
  %2 = alloca ptr, align 8
  store ptr %0, ptr %2, align 8, !tbaa !359
  %3 = load ptr, ptr %2, align 8
  %4 = getelementptr inbounds nuw %class.scoped_ptr.114, ptr %3, i32 0, i32 0
  %5 = load ptr, ptr %4, align 8, !tbaa !361
  ret ptr %5
}

; Function Attrs: mustprogress nounwind uwtable
define linkonce_odr hidden noundef zeroext i1 @_ZNK10scoped_ptrIN6spacer3pobEEcvbEv(ptr noundef nonnull align 8 dereferenceable(8) %0) #5 comdat align 2 {
  %2 = alloca ptr, align 8
  store ptr %0, ptr %2, align 8, !tbaa !359
  %3 = load ptr, ptr %2, align 8
  %4 = getelementptr inbounds nuw %class.scoped_ptr.114, ptr %3, i32 0, i32 0
  %5 = load ptr, ptr %4, align 8, !tbaa !361
  %6 = icmp ne ptr %5, null
  ret i1 %6
}

; Function Attrs: mustprogress nounwind uwtable
define linkonce_odr hidden void @_ZN6spacer3pob11set_subsumeEb(ptr noundef nonnull align 8 dereferenceable(152) %0, i1 noundef zeroext %1) #5 comdat align 2 {
  %3 = alloca ptr, align 8
  %4 = alloca i8, align 1
  store ptr %0, ptr %3, align 8, !tbaa !206
  %5 = zext i1 %1 to i8
  store i8 %5, ptr %4, align 1, !tbaa !10
  %6 = load ptr, ptr %3, align 8
  %7 = load i8, ptr %4, align 1, !tbaa !10, !range !37, !noundef !38
  %8 = trunc i8 %7 to i1
  %9 = zext i1 %8 to i32
  %10 = getelementptr inbounds nuw %"class.spacer::pob", ptr %6, i32 0, i32 6
  %11 = zext i32 %9 to i64
  %12 = load i64, ptr %10, align 8
  %13 = and i64 %11, 1
  %14 = shl i64 %13, 54
  %15 = and i64 %12, -18014398509481985
  %16 = or i64 %15, %14
  store i64 %16, ptr %10, align 8
  ret void
}

; Function Attrs: mustprogress uwtable
define linkonce_odr hidden noundef ptr @_ZN6spacer16pred_transformer6mk_pobEPNS_3pobEjjP4exprRK10ref_vectorI3app11ast_managerE(ptr noundef nonnull align 8 dereferenceable(472) %0, ptr noundef %1, i32 noundef %2, i32 noundef %3, ptr noundef %4, ptr noundef nonnull align 8 dereferenceable(16) %5) #4 comdat align 2 {
  %7 = alloca ptr, align 8
  %8 = alloca ptr, align 8
  %9 = alloca i32, align 4
  %10 = alloca i32, align 4
  %11 = alloca ptr, align 8
  %12 = alloca ptr, align 8
  store ptr %0, ptr %7, align 8, !tbaa !364
  store ptr %1, ptr %8, align 8, !tbaa !206
  store i32 %2, ptr %9, align 4, !tbaa !128
  store i32 %3, ptr %10, align 4, !tbaa !128
  store ptr %4, ptr %11, align 8, !tbaa !242
  store ptr %5, ptr %12, align 8, !tbaa !44
  %13 = load ptr, ptr %7, align 8
  %14 = getelementptr inbounds nuw %"class.spacer::pred_transformer", ptr %13, i32 0, i32 10
  %15 = load ptr, ptr %8, align 8, !tbaa !206
  %16 = load i32, ptr %9, align 4, !tbaa !128
  %17 = load i32, ptr %10, align 4, !tbaa !128
  %18 = load ptr, ptr %11, align 8, !tbaa !242
  %19 = load ptr, ptr %12, align 8, !tbaa !44
  %20 = call noundef ptr @_ZN6spacer16pred_transformer11pob_manager6mk_pobEPNS_3pobEjjP4exprRK10ref_vectorI3app11ast_managerE(ptr noundef nonnull align 8 dereferenceable(40) %14, ptr noundef %15, i32 noundef %16, i32 noundef %17, ptr noundef %18, ptr noundef nonnull align 8 dereferenceable(16) %19)
  ret ptr %20
}

; Function Attrs: mustprogress nounwind uwtable
define linkonce_odr hidden noundef nonnull align 8 dereferenceable(16) ptr @_ZNK6spacer3pob11get_bindingEv(ptr noundef nonnull align 8 dereferenceable(152) %0) #5 comdat align 2 {
  %2 = alloca ptr, align 8
  store ptr %0, ptr %2, align 8, !tbaa !206
  %3 = load ptr, ptr %2, align 8
  %4 = getelementptr inbounds nuw %"class.spacer::pob", ptr %3, i32 0, i32 4
  ret ptr %4
}

; Function Attrs: mustprogress nounwind uwtable
define linkonce_odr hidden noundef i32 @_ZNK6spacer3pob5depthEv(ptr noundef nonnull align 8 dereferenceable(152) %0) #5 comdat align 2 {
  %2 = alloca ptr, align 8
  store ptr %0, ptr %2, align 8, !tbaa !206
  %3 = load ptr, ptr %2, align 8
  %4 = getelementptr inbounds nuw %"class.spacer::pob", ptr %3, i32 0, i32 6
  %5 = load i64, ptr %4, align 8
  %6 = lshr i64 %5, 16
  %7 = and i64 %6, 65535
  %8 = trunc i64 %7 to i32
  ret i32 %8
}

; Function Attrs: mustprogress nounwind uwtable
define linkonce_odr hidden noundef i32 @_ZNK6spacer3pob5levelEv(ptr noundef nonnull align 8 dereferenceable(152) %0) #5 comdat align 2 {
  %2 = alloca ptr, align 8
  store ptr %0, ptr %2, align 8, !tbaa !206
  %3 = load ptr, ptr %2, align 8
  %4 = getelementptr inbounds nuw %"class.spacer::pob", ptr %3, i32 0, i32 6
  %5 = load i64, ptr %4, align 8
  %6 = and i64 %5, 65535
  %7 = trunc i64 %6 to i32
  ret i32 %7
}

; Function Attrs: mustprogress uwtable
define linkonce_odr hidden void @_ZN6spacer3pob10reset_dataEv(ptr noundef nonnull align 8 dereferenceable(152) %0) #4 comdat align 2 {
  %2 = alloca ptr, align 8
  store ptr %0, ptr %2, align 8, !tbaa !206
  %3 = load ptr, ptr %2, align 8
  call void @_ZN6spacer3pob8set_dataEPS0_(ptr noundef nonnull align 8 dereferenceable(152) %3, ptr noundef null)
  ret void
}

; Function Attrs: mustprogress nounwind uwtable
define linkonce_odr hidden noundef zeroext i1 @_ZNK6spacer3pob9is_closedEv(ptr noundef nonnull align 8 dereferenceable(152) %0) #5 comdat align 2 {
  %2 = alloca ptr, align 8
  store ptr %0, ptr %2, align 8, !tbaa !206
  %3 = load ptr, ptr %2, align 8
  %4 = getelementptr inbounds nuw %"class.spacer::pob", ptr %3, i32 0, i32 6
  %5 = load i64, ptr %4, align 8
  %6 = lshr i64 %5, 48
  %7 = and i64 %6, 1
  %8 = trunc i64 %7 to i32
  %9 = icmp ne i32 %8, 0
  %10 = xor i1 %9, true
  ret i1 %10
}

; Function Attrs: mustprogress nounwind uwtable
define linkonce_odr hidden noundef zeroext i1 @_ZNK6spacer3pob11is_in_queueEv(ptr noundef nonnull align 8 dereferenceable(152) %0) #5 comdat align 2 {
  %2 = alloca ptr, align 8
  store ptr %0, ptr %2, align 8, !tbaa !206
  %3 = load ptr, ptr %2, align 8
  %4 = getelementptr inbounds nuw %"class.spacer::pob", ptr %3, i32 0, i32 6
  %5 = load i64, ptr %4, align 8
  %6 = lshr i64 %5, 50
  %7 = and i64 %6, 1
  %8 = trunc i64 %7 to i32
  %9 = icmp ne i32 %8, 0
  ret i1 %9
}

; Function Attrs: mustprogress uwtable
define linkonce_odr hidden noundef ptr @_ZN6spacer16pred_transformer8find_pobEPNS_3pobEP4expr(ptr noundef nonnull align 8 dereferenceable(472) %0, ptr noundef %1, ptr noundef %2) #4 comdat align 2 {
  %4 = alloca ptr, align 8
  %5 = alloca ptr, align 8
  %6 = alloca ptr, align 8
  store ptr %0, ptr %4, align 8, !tbaa !364
  store ptr %1, ptr %5, align 8, !tbaa !206
  store ptr %2, ptr %6, align 8, !tbaa !242
  %7 = load ptr, ptr %4, align 8
  %8 = getelementptr inbounds nuw %"class.spacer::pred_transformer", ptr %7, i32 0, i32 10
  %9 = load ptr, ptr %5, align 8, !tbaa !206
  %10 = load ptr, ptr %6, align 8, !tbaa !242
  %11 = call noundef ptr @_ZN6spacer16pred_transformer11pob_manager8find_pobEPNS_3pobEP4expr(ptr noundef nonnull align 8 dereferenceable(40) %8, ptr noundef %9, ptr noundef %10)
  ret ptr %11
}

; Function Attrs: mustprogress uwtable
define linkonce_odr hidden noundef ptr @_ZNK6spacer3pob4postEv(ptr noundef nonnull align 8 dereferenceable(152) %0) #4 comdat align 2 {
  %2 = alloca ptr, align 8
  store ptr %0, ptr %2, align 8, !tbaa !206
  %3 = load ptr, ptr %2, align 8
  %4 = getelementptr inbounds nuw %"class.spacer::pob", ptr %3, i32 0, i32 3
  %5 = call noundef ptr @_ZNK7obj_refI4expr11ast_managerE3getEv(ptr noundef nonnull align 8 dereferenceable(16) %4)
  ret ptr %5
}

; Function Attrs: mustprogress uwtable
define linkonce_odr hidden noundef ptr @_ZNK6spacer3pob6parentEv(ptr noundef nonnull align 8 dereferenceable(152) %0) #4 comdat align 2 {
  %2 = alloca ptr, align 8
  store ptr %0, ptr %2, align 8, !tbaa !206
  %3 = load ptr, ptr %2, align 8
  %4 = getelementptr inbounds nuw %"class.spacer::pob", ptr %3, i32 0, i32 1
  %5 = call noundef ptr @_ZNK3refIN6spacer3pobEE3getEv(ptr noundef nonnull align 8 dereferenceable(8) %4)
  ret ptr %5
}

; Function Attrs: mustprogress nounwind uwtable
define linkonce_odr hidden noundef nonnull align 8 dereferenceable(472) ptr @_ZNK6spacer3pob2ptEv(ptr noundef nonnull align 8 dereferenceable(152) %0) #5 comdat align 2 {
  %2 = alloca ptr, align 8
  store ptr %0, ptr %2, align 8, !tbaa !206
  %3 = load ptr, ptr %2, align 8
  %4 = getelementptr inbounds nuw %"class.spacer::pob", ptr %3, i32 0, i32 2
  %5 = load ptr, ptr %4, align 8, !tbaa !349
  ret ptr %5
}

; Function Attrs: mustprogress nounwind uwtable
define linkonce_odr hidden noundef zeroext i1 @_ZNK6spacer3pob10is_subsumeEv(ptr noundef nonnull align 8 dereferenceable(152) %0) #5 comdat align 2 {
  %2 = alloca ptr, align 8
  store ptr %0, ptr %2, align 8, !tbaa !206
  %3 = load ptr, ptr %2, align 8
  %4 = getelementptr inbounds nuw %"class.spacer::pob", ptr %3, i32 0, i32 6
  %5 = load i64, ptr %4, align 8
  %6 = lshr i64 %5, 54
  %7 = and i64 %6, 1
  %8 = trunc i64 %7 to i32
  %9 = icmp ne i32 %8, 0
  ret i1 %9
}

; Function Attrs: mustprogress uwtable
define linkonce_odr hidden noundef ptr @_ZN6spacer3pob8get_dataEv(ptr noundef nonnull align 8 dereferenceable(152) %0) #4 comdat align 2 {
  %2 = alloca ptr, align 8
  store ptr %0, ptr %2, align 8, !tbaa !206
  %3 = load ptr, ptr %2, align 8
  %4 = getelementptr inbounds nuw %"class.spacer::pob", ptr %3, i32 0, i32 14
  %5 = call noundef ptr @_ZNK10scoped_ptrIN6spacer3pobEE3getEv(ptr noundef nonnull align 8 dereferenceable(8) %4)
  ret ptr %5
}

; Function Attrs: mustprogress uwtable
define linkonce_odr hidden noundef zeroext i1 @_ZN6spacer3pob8has_dataEv(ptr noundef nonnull align 8 dereferenceable(152) %0) #4 comdat align 2 {
  %2 = alloca ptr, align 8
  store ptr %0, ptr %2, align 8, !tbaa !206
  %3 = load ptr, ptr %2, align 8
  %4 = getelementptr inbounds nuw %"class.spacer::pob", ptr %3, i32 0, i32 14
  %5 = call noundef zeroext i1 @_ZNK10scoped_ptrIN6spacer3pobEEcvbEv(ptr noundef nonnull align 8 dereferenceable(8) %4)
  ret i1 %5
}

; Function Attrs: mustprogress nounwind uwtable
define linkonce_odr hidden noundef i32 @_ZNK6spacer3pob7get_gasEv(ptr noundef nonnull align 8 dereferenceable(152) %0) #5 comdat align 2 {
  %2 = alloca ptr, align 8
  store ptr %0, ptr %2, align 8, !tbaa !206
  %3 = load ptr, ptr %2, align 8
  %4 = getelementptr inbounds nuw %"class.spacer::pob", ptr %3, i32 0, i32 13
  %5 = load i32, ptr %4, align 8, !tbaa !362
  ret i32 %5
}

; Function Attrs: mustprogress uwtable
define hidden noundef ptr @_ZN6spacer24lemma_global_generalizer14mk_subsume_pobERNS_3pobE(ptr noundef nonnull align 8 dereferenceable(225) %0, ptr noundef nonnull align 8 dereferenceable(152) %1) #4 align 2 {
  %3 = alloca ptr, align 8
  %4 = alloca ptr, align 8
  %5 = alloca ptr, align 8
  %6 = alloca ptr, align 8
  %7 = alloca ptr, align 8
  %8 = alloca i32, align 4
  store ptr %0, ptr %4, align 8, !tbaa !129
  store ptr %1, ptr %5, align 8, !tbaa !206
  %9 = load ptr, ptr %5, align 8, !tbaa !206
  %10 = call noundef i32 @_ZNK6spacer3pob7get_gasEv(ptr noundef nonnull align 8 dereferenceable(152) %9)
  %11 = icmp uge i32 %10, 0
  br i1 %11, label %12, label %19

12:                                               ; preds = %2
  %13 = load ptr, ptr %5, align 8, !tbaa !206
  %14 = call noundef zeroext i1 @_ZN6spacer3pob8has_dataEv(ptr noundef nonnull align 8 dereferenceable(152) %13)
  br i1 %14, label %15, label %19

15:                                               ; preds = %12
  %16 = load ptr, ptr %5, align 8, !tbaa !206
  %17 = call noundef ptr @_ZN6spacer3pob8get_dataEv(ptr noundef nonnull align 8 dereferenceable(152) %16)
  %18 = call noundef zeroext i1 @_ZNK6spacer3pob10is_subsumeEv(ptr noundef nonnull align 8 dereferenceable(152) %17)
  br i1 %18, label %20, label %19

19:                                               ; preds = %15, %12, %2
  store ptr null, ptr %3, align 8
  br label %60

20:                                               ; preds = %15
  call void @llvm.lifetime.start.p0(i64 8, ptr %6) #3
  %21 = load ptr, ptr %5, align 8, !tbaa !206
  %22 = call noundef ptr @_ZN6spacer3pob8get_dataEv(ptr noundef nonnull align 8 dereferenceable(152) %21)
  store ptr %22, ptr %6, align 8, !tbaa !206
  call void @llvm.lifetime.start.p0(i64 8, ptr %7) #3
  %23 = load ptr, ptr %5, align 8, !tbaa !206
  %24 = call noundef nonnull align 8 dereferenceable(472) ptr @_ZNK6spacer3pob2ptEv(ptr noundef nonnull align 8 dereferenceable(152) %23)
  %25 = load ptr, ptr %6, align 8, !tbaa !206
  %26 = call noundef ptr @_ZNK6spacer3pob6parentEv(ptr noundef nonnull align 8 dereferenceable(152) %25)
  %27 = load ptr, ptr %6, align 8, !tbaa !206
  %28 = call noundef ptr @_ZNK6spacer3pob4postEv(ptr noundef nonnull align 8 dereferenceable(152) %27)
  %29 = call noundef ptr @_ZN6spacer16pred_transformer8find_pobEPNS_3pobEP4expr(ptr noundef nonnull align 8 dereferenceable(472) %24, ptr noundef %26, ptr noundef %28)
  store ptr %29, ptr %7, align 8, !tbaa !206
  %30 = load ptr, ptr %7, align 8, !tbaa !206
  %31 = icmp ne ptr %30, null
  br i1 %31, label %32, label %40

32:                                               ; preds = %20
  %33 = load ptr, ptr %7, align 8, !tbaa !206
  %34 = call noundef zeroext i1 @_ZNK6spacer3pob11is_in_queueEv(ptr noundef nonnull align 8 dereferenceable(152) %33)
  br i1 %34, label %38, label %35

35:                                               ; preds = %32
  %36 = load ptr, ptr %7, align 8, !tbaa !206
  %37 = call noundef zeroext i1 @_ZNK6spacer3pob9is_closedEv(ptr noundef nonnull align 8 dereferenceable(152) %36)
  br i1 %37, label %38, label %40

38:                                               ; preds = %35, %32
  %39 = load ptr, ptr %5, align 8, !tbaa !206
  call void @_ZN6spacer3pob10reset_dataEv(ptr noundef nonnull align 8 dereferenceable(152) %39)
  store ptr null, ptr %3, align 8
  store i32 1, ptr %8, align 4
  br label %59

40:                                               ; preds = %35, %20
  %41 = load ptr, ptr %5, align 8, !tbaa !206
  %42 = call noundef nonnull align 8 dereferenceable(472) ptr @_ZNK6spacer3pob2ptEv(ptr noundef nonnull align 8 dereferenceable(152) %41)
  %43 = load ptr, ptr %6, align 8, !tbaa !206
  %44 = call noundef ptr @_ZNK6spacer3pob6parentEv(ptr noundef nonnull align 8 dereferenceable(152) %43)
  %45 = load ptr, ptr %6, align 8, !tbaa !206
  %46 = call noundef i32 @_ZNK6spacer3pob5levelEv(ptr noundef nonnull align 8 dereferenceable(152) %45)
  %47 = load ptr, ptr %6, align 8, !tbaa !206
  %48 = call noundef i32 @_ZNK6spacer3pob5depthEv(ptr noundef nonnull align 8 dereferenceable(152) %47)
  %49 = load ptr, ptr %6, align 8, !tbaa !206
  %50 = call noundef ptr @_ZNK6spacer3pob4postEv(ptr noundef nonnull align 8 dereferenceable(152) %49)
  %51 = load ptr, ptr %5, align 8, !tbaa !206
  %52 = call noundef nonnull align 8 dereferenceable(16) ptr @_ZNK6spacer3pob11get_bindingEv(ptr noundef nonnull align 8 dereferenceable(152) %51)
  %53 = call noundef ptr @_ZN6spacer16pred_transformer6mk_pobEPNS_3pobEjjP4exprRK10ref_vectorI3app11ast_managerE(ptr noundef nonnull align 8 dereferenceable(472) %42, ptr noundef %44, i32 noundef %46, i32 noundef %48, ptr noundef %50, ptr noundef nonnull align 8 dereferenceable(16) %52)
  store ptr %53, ptr %7, align 8, !tbaa !206
  %54 = load ptr, ptr %7, align 8, !tbaa !206
  call void @_ZN6spacer3pob11set_subsumeEb(ptr noundef nonnull align 8 dereferenceable(152) %54, i1 noundef zeroext true)
  %55 = load ptr, ptr %7, align 8, !tbaa !206
  %56 = load ptr, ptr %6, align 8, !tbaa !206
  call void @_ZN6spacer3pob7inheritERKS0_(ptr noundef nonnull align 8 dereferenceable(152) %55, ptr noundef nonnull align 8 dereferenceable(152) %56)
  %57 = load ptr, ptr %5, align 8, !tbaa !206
  call void @_ZN6spacer3pob10reset_dataEv(ptr noundef nonnull align 8 dereferenceable(152) %57)
  %58 = load ptr, ptr %7, align 8, !tbaa !206
  store ptr %58, ptr %3, align 8
  store i32 1, ptr %8, align 4
  br label %59

59:                                               ; preds = %40, %38
  call void @llvm.lifetime.end.p0(i64 8, ptr %7) #3
  call void @llvm.lifetime.end.p0(i64 8, ptr %6) #3
  br label %60

60:                                               ; preds = %59, %19
  %61 = load ptr, ptr %3, align 8
  ret ptr %61
}