; Function Attrs: mustprogress uwtable
define hidden noundef ptr @_ZN6spacer24lemma_global_generalizer14mk_subsume_pobERNS_3pobE(ptr noundef nonnull readnone align 8 captures(none) dereferenceable(225) %0, ptr noundef nonnull align 8 dereferenceable(152) %1) local_unnamed_addr #3 align 2 {
  %3 = getelementptr inbounds nuw i8, ptr %1, i64 144
  %4 = load ptr, ptr %3, align 8, !tbaa !225
  %.not26 = icmp eq ptr %4, null
  br i1 %.not26, label %_ZN6spacer3pob10reset_dataEv.exit, label %5

5:                                                ; preds = %2
  %6 = getelementptr inbounds nuw i8, ptr %4, i64 72
  %7 = load i64, ptr %6, align 8
  %8 = and i64 %7, 18014398509481984
  %.not27 = icmp eq i64 %8, 0
  br i1 %.not27, label %_ZN6spacer3pob10reset_dataEv.exit, label %9

9:                                                ; preds = %5
  %10 = getelementptr inbounds nuw i8, ptr %1, i64 16
  %11 = load ptr, ptr %10, align 8, !tbaa !195
  %12 = getelementptr inbounds nuw i8, ptr %4, i64 8
  %13 = load ptr, ptr %12, align 8, !tbaa !194
  %14 = getelementptr inbounds nuw i8, ptr %4, i64 24
  %15 = load ptr, ptr %14, align 8, !tbaa !217
  %16 = getelementptr inbounds nuw i8, ptr %11, i64 136
  %17 = tail call noundef ptr @_ZN6spacer16pred_transformer11pob_manager8find_pobEPNS_3pobEP4expr(ptr noundef nonnull align 8 dereferenceable(40) %16, ptr noundef %13, ptr noundef %15)
  %.not = icmp eq ptr %17, null
  br i1 %.not, label %24, label %18

18:                                               ; preds = %9
  %19 = getelementptr inbounds nuw i8, ptr %17, i64 72
  %20 = load i64, ptr %19, align 8
  %21 = and i64 %20, 1407374883553280
  %or.cond.not = icmp eq i64 %21, 281474976710656
  br i1 %or.cond.not, label %24, label %22

22:                                               ; preds = %18
  %23 = load ptr, ptr %3, align 8, !tbaa !225
  %.not.i.i.i = icmp eq ptr %23, null
  br i1 %.not.i.i.i, label %_ZN6spacer3pob10reset_dataEv.exit, label %_ZN6spacer3pob10reset_dataEv.exit.sink.split

24:                                               ; preds = %18, %9
  %25 = load ptr, ptr %10, align 8, !tbaa !195
  %26 = load ptr, ptr %12, align 8, !tbaa !194
  %27 = load i64, ptr %6, align 8
  %28 = trunc i64 %27 to i32
  %29 = and i32 %28, 65535
  %30 = lshr i32 %28, 16
  %31 = load ptr, ptr %14, align 8, !tbaa !217
  %32 = getelementptr inbounds nuw i8, ptr %1, i64 40
  %33 = getelementptr inbounds nuw i8, ptr %25, i64 136
  %34 = tail call noundef ptr @_ZN6spacer16pred_transformer11pob_manager6mk_pobEPNS_3pobEjjP4exprRK10ref_vectorI3app11ast_managerE(ptr noundef nonnull align 8 dereferenceable(40) %33, ptr noundef %26, i32 noundef %29, i32 noundef %30, ptr noundef %31, ptr noundef nonnull align 8 dereferenceable(16) %32)
  %35 = getelementptr inbounds nuw i8, ptr %34, i64 72
  %36 = load i64, ptr %35, align 8
  %37 = or i64 %36, 18014398509481984
  store i64 %37, ptr %35, align 8
  tail call void @_ZN6spacer3pob7inheritERKS0_(ptr noundef nonnull align 8 dereferenceable(152) %34, ptr noundef nonnull align 8 dereferenceable(152) %4)
  %38 = load ptr, ptr %3, align 8, !tbaa !225
  %.not.i.i.i24 = icmp eq ptr %38, null
  br i1 %.not.i.i.i24, label %_ZN6spacer3pob10reset_dataEv.exit, label %_ZN6spacer3pob10reset_dataEv.exit.sink.split

_ZN6spacer3pob10reset_dataEv.exit.sink.split:     ; preds = %24, %22
  %.sink28 = phi ptr [ %23, %22 ], [ %38, %24 ]
  %.0.ph = phi ptr [ null, %22 ], [ %34, %24 ]
  tail call void @_ZN6spacer3pobD2Ev(ptr noundef nonnull align 8 dereferenceable(152) %.sink28) #23
  tail call void @_ZN6memory10deallocateEPv(ptr noundef nonnull %.sink28)
  store ptr null, ptr %3, align 8, !tbaa !225
  br label %_ZN6spacer3pob10reset_dataEv.exit

_ZN6spacer3pob10reset_dataEv.exit:                ; preds = %_ZN6spacer3pob10reset_dataEv.exit.sink.split, %24, %22, %2, %5
  %.0 = phi ptr [ null, %5 ], [ null, %2 ], [ null, %22 ], [ %34, %24 ], [ %.0.ph, %_ZN6spacer3pob10reset_dataEv.exit.sink.split ]
  ret ptr %.0
}